target datalayout = "e-m:e-p270:32:32-p271:32:32-p272:64:64-i64:64-i128:128-f80:128-n8:16:32:64-S128"
target triple = "x86_64-pc-linux-gnu"

%struct.vars = type { ptr, ptr, ptr, i32, i32, i32, i32, i32, i32, i32, ptr, i64, [10 x ptr], ptr, ptr, i16, ptr, ptr, ptr, ptr, i32, ptr, ptr, ptr, i32, i64 }
%struct.nfa = type { ptr, ptr, ptr, ptr, i32, ptr, ptr, ptr, ptr, ptr, ptr, i64, i64, ptr, [2 x i16], [2 x i16], i32, i32, i32, ptr, ptr }
%struct.arc = type { i32, i16, ptr, ptr, ptr, ptr, ptr, ptr, ptr, ptr }
%struct.state = type { i32, i8, i32, i32, ptr, ptr, ptr, ptr, ptr }

; Function Attrs: nounwind uwtable
define internal void @sortins(ptr noundef %0, ptr noundef %1) #0 {
  %3 = alloca ptr, align 8
  %4 = alloca ptr, align 8
  %5 = alloca ptr, align 8
  %6 = alloca ptr, align 8
  %7 = alloca i32, align 4
  %8 = alloca i32, align 4
  %9 = alloca i32, align 4
  store ptr %0, ptr %3, align 8
  store ptr %1, ptr %4, align 8
  call void @llvm.lifetime.start.p0(i64 8, ptr %5) #12
  call void @llvm.lifetime.start.p0(i64 8, ptr %6) #12
  call void @llvm.lifetime.start.p0(i64 4, ptr %7) #12
  %10 = load ptr, ptr %4, align 8
  %11 = getelementptr inbounds nuw %struct.state, ptr %10, i32 0, i32 2
  %12 = load i32, ptr %11, align 8
  store i32 %12, ptr %7, align 4
  call void @llvm.lifetime.start.p0(i64 4, ptr %8) #12
  %13 = load i32, ptr %7, align 4
  %14 = icmp sle i32 %13, 1
  br i1 %14, label %15, label %16

15:                                               ; preds = %2
  store i32 1, ptr %9, align 4
  br label %129

16:                                               ; preds = %2
  %17 = load i32, ptr %7, align 4
  %18 = sext i32 %17 to i64
  %19 = mul i64 %18, 8
  %20 = call ptr @palloc_extended(i64 noundef %19, i32 noundef 2)
  store ptr %20, ptr %5, align 8
  %21 = load ptr, ptr %5, align 8
  %22 = icmp eq ptr %21, null
  br i1 %22, label %23, label %47

23:                                               ; preds = %16
  %24 = load ptr, ptr %3, align 8
  %25 = getelementptr inbounds nuw %struct.nfa, ptr %24, i32 0, i32 19
  %26 = load ptr, ptr %25, align 8
  %27 = getelementptr inbounds nuw %struct.vars, ptr %26, i32 0, i32 6
  store i32 101, ptr %27, align 4
  %28 = load ptr, ptr %3, align 8
  %29 = getelementptr inbounds nuw %struct.nfa, ptr %28, i32 0, i32 19
  %30 = load ptr, ptr %29, align 8
  %31 = getelementptr inbounds nuw %struct.vars, ptr %30, i32 0, i32 3
  %32 = load i32, ptr %31, align 8
  %33 = icmp ne i32 %32, 0
  br i1 %33, label %34, label %40

34:                                               ; preds = %23
  %35 = load ptr, ptr %3, align 8
  %36 = getelementptr inbounds nuw %struct.nfa, ptr %35, i32 0, i32 19
  %37 = load ptr, ptr %36, align 8
  %38 = getelementptr inbounds nuw %struct.vars, ptr %37, i32 0, i32 3
  %39 = load i32, ptr %38, align 8
  br label %41

40:                                               ; preds = %23
  br label %41

41:                                               ; preds = %40, %34
  %42 = phi i32 [ %39, %34 ], [ 12, %40 ]
  %43 = load ptr, ptr %3, align 8
  %44 = getelementptr inbounds nuw %struct.nfa, ptr %43, i32 0, i32 19
  %45 = load ptr, ptr %44, align 8
  %46 = getelementptr inbounds nuw %struct.vars, ptr %45, i32 0, i32 3
  store i32 %42, ptr %46, align 8
  store i32 1, ptr %9, align 4
  br label %129

47:                                               ; preds = %16
  store i32 0, ptr %8, align 4
  %48 = load ptr, ptr %4, align 8
  %49 = getelementptr inbounds nuw %struct.state, ptr %48, i32 0, i32 4
  %50 = load ptr, ptr %49, align 8
  store ptr %50, ptr %6, align 8
  br label %51

51:                                               ; preds = %61, %47
  %52 = load ptr, ptr %6, align 8
  %53 = icmp ne ptr %52, null
  br i1 %53, label %54, label %65

54:                                               ; preds = %51
  %55 = load ptr, ptr %6, align 8
  %56 = load ptr, ptr %5, align 8
  %57 = load i32, ptr %8, align 4
  %58 = add i32 %57, 1
  store i32 %58, ptr %8, align 4
  %59 = sext i32 %57 to i64
  %60 = getelementptr inbounds ptr, ptr %56, i64 %59
  store ptr %55, ptr %60, align 8
  br label %61

61:                                               ; preds = %54
  %62 = load ptr, ptr %6, align 8
  %63 = getelementptr inbounds nuw %struct.arc, ptr %62, i32 0, i32 6
  %64 = load ptr, ptr %63, align 8
  store ptr %64, ptr %6, align 8
  br label %51, !llvm.loop !43

65:                                               ; preds = %51
  %66 = load ptr, ptr %5, align 8
  %67 = load i32, ptr %7, align 4
  %68 = sext i32 %67 to i64
  call void @pg_qsort(ptr noundef %66, i64 noundef %68, i64 noundef 8, ptr noundef @sortins_cmp)
  %69 = load ptr, ptr %5, align 8
  %70 = getelementptr inbounds ptr, ptr %69, i64 0
  %71 = load ptr, ptr %70, align 8
  store ptr %71, ptr %6, align 8
  %72 = load ptr, ptr %6, align 8
  %73 = load ptr, ptr %4, align 8
  %74 = getelementptr inbounds nuw %struct.state, ptr %73, i32 0, i32 4
  store ptr %72, ptr %74, align 8
  %75 = load ptr, ptr %5, align 8
  %76 = getelementptr inbounds ptr, ptr %75, i64 1
  %77 = load ptr, ptr %76, align 8
  %78 = load ptr, ptr %6, align 8
  %79 = getelementptr inbounds nuw %struct.arc, ptr %78, i32 0, i32 6
  store ptr %77, ptr %79, align 8
  %80 = load ptr, ptr %6, align 8
  %81 = getelementptr inbounds nuw %struct.arc, ptr %80, i32 0, i32 7
  store ptr null, ptr %81, align 8
  store i32 1, ptr %8, align 4
  br label %82

82:                                               ; preds = %109, %65
  %83 = load i32, ptr %8, align 4
  %84 = load i32, ptr %7, align 4
  %85 = sub i32 %84, 1
  %86 = icmp slt i32 %83, %85
  br i1 %86, label %87, label %112

87:                                               ; preds = %82
  %88 = load ptr, ptr %5, align 8
  %89 = load i32, ptr %8, align 4
  %90 = sext i32 %89 to i64
  %91 = getelementptr inbounds ptr, ptr %88, i64 %90
  %92 = load ptr, ptr %91, align 8
  store ptr %92, ptr %6, align 8
  %93 = load ptr, ptr %5, align 8
  %94 = load i32, ptr %8, align 4
  %95 = add i32 %94, 1
  %96 = sext i32 %95 to i64
  %97 = getelementptr inbounds ptr, ptr %93, i64 %96
  %98 = load ptr, ptr %97, align 8
  %99 = load ptr, ptr %6, align 8
  %100 = getelementptr inbounds nuw %struct.arc, ptr %99, i32 0, i32 6
  store ptr %98, ptr %100, align 8
  %101 = load ptr, ptr %5, align 8
  %102 = load i32, ptr %8, align 4
  %103 = sub i32 %102, 1
  %104 = sext i32 %103 to i64
  %105 = getelementptr inbounds ptr, ptr %101, i64 %104
  %106 = load ptr, ptr %105, align 8
  %107 = load ptr, ptr %6, align 8
  %108 = getelementptr inbounds nuw %struct.arc, ptr %107, i32 0, i32 7
  store ptr %106, ptr %108, align 8
  br label %109

109:                                              ; preds = %87
  %110 = load i32, ptr %8, align 4
  %111 = add i32 %110, 1
  store i32 %111, ptr %8, align 4
  br label %82, !llvm.loop !44

112:                                              ; preds = %82
  %113 = load ptr, ptr %5, align 8
  %114 = load i32, ptr %8, align 4
  %115 = sext i32 %114 to i64
  %116 = getelementptr inbounds ptr, ptr %113, i64 %115
  %117 = load ptr, ptr %116, align 8
  store ptr %117, ptr %6, align 8
  %118 = load ptr, ptr %6, align 8
  %119 = getelementptr inbounds nuw %struct.arc, ptr %118, i32 0, i32 6
  store ptr null, ptr %119, align 8
  %120 = load ptr, ptr %5, align 8
  %121 = load i32, ptr %8, align 4
  %122 = sub i32 %121, 1
  %123 = sext i32 %122 to i64
  %124 = getelementptr inbounds ptr, ptr %120, i64 %123
  %125 = load ptr, ptr %124, align 8
  %126 = load ptr, ptr %6, align 8
  %127 = getelementptr inbounds nuw %struct.arc, ptr %126, i32 0, i32 7
  store ptr %125, ptr %127, align 8
  %128 = load ptr, ptr %5, align 8
  call void @pfree(ptr noundef %128)
  store i32 0, ptr %9, align 4
  br label %129

129:                                              ; preds = %112, %41, %15
  call void @llvm.lifetime.end.p0(i64 4, ptr %8) #12
  call void @llvm.lifetime.end.p0(i64 4, ptr %7) #12
  call void @llvm.lifetime.end.p0(i64 8, ptr %6) #12
  call void @llvm.lifetime.end.p0(i64 8, ptr %5) #12
  %130 = load i32, ptr %9, align 4
  switch i32 %130, label %132 [
    i32 0, label %131
    i32 1, label %131
  ]

131:                                              ; preds = %129, %129
  ret void

132:                                              ; preds = %129
  unreachable
}