; Function Attrs: nounwind uwtable
define internal fastcc void @sortins(ptr noundef readonly captures(none) %0, ptr noundef captures(none) %1) unnamed_addr #0 {
  %3 = getelementptr inbounds nuw i8, ptr %1, i64 8
  %4 = load i32, ptr %3, align 8
  %5 = icmp slt i32 %4, 2
  br i1 %5, label %45, label %6

6:                                                ; preds = %2
  %7 = zext nneg i32 %4 to i64
  %8 = shl nuw nsw i64 %7, 3
  %9 = tail call ptr @palloc_extended(i64 noundef %8, i32 noundef 2) #20
  %10 = icmp eq ptr %9, null
  br i1 %10, label %11, label %18

11:                                               ; preds = %6
  %12 = getelementptr inbounds nuw i8, ptr %0, i64 136
  %13 = load ptr, ptr %12, align 8
  %14 = getelementptr inbounds nuw i8, ptr %13, i64 36
  store i32 101, ptr %14, align 4
  %15 = load ptr, ptr %12, align 8
  %16 = getelementptr inbounds nuw i8, ptr %15, i64 24
  %17 = load i32, ptr %16, align 8
  %.not43 = icmp eq i32 %17, 0
  %spec.select = select i1 %.not43, i32 12, i32 %17
  store i32 %spec.select, ptr %16, align 8
  br label %45

18:                                               ; preds = %6
  %19 = getelementptr inbounds nuw i8, ptr %1, i64 16
  %.03944 = load ptr, ptr %19, align 8
  %.not45 = icmp eq ptr %.03944, null
  br i1 %.not45, label %._crit_edge, label %.lr.ph

.lr.ph:                                           ; preds = %18, %.lr.ph
  %.03947 = phi ptr [ %.039, %.lr.ph ], [ %.03944, %18 ]
  %.046 = phi i32 [ %20, %.lr.ph ], [ 0, %18 ]
  %20 = add i32 %.046, 1
  %21 = sext i32 %.046 to i64
  %22 = getelementptr inbounds ptr, ptr %9, i64 %21
  store ptr %.03947, ptr %22, align 8
  %23 = getelementptr inbounds nuw i8, ptr %.03947, i64 40
  %.039 = load ptr, ptr %23, align 8
  %.not = icmp eq ptr %.039, null
  br i1 %.not, label %._crit_edge, label %.lr.ph, !llvm.loop !99

._crit_edge:                                      ; preds = %.lr.ph, %18
  tail call void @pg_qsort(ptr noundef nonnull %9, i64 noundef %7, i64 noundef 8, ptr noundef nonnull @sortins_cmp) #20
  %24 = load ptr, ptr %9, align 8
  store ptr %24, ptr %19, align 8
  %25 = getelementptr inbounds nuw i8, ptr %9, i64 8
  %26 = load ptr, ptr %25, align 8
  %27 = getelementptr inbounds nuw i8, ptr %24, i64 40
  store ptr %26, ptr %27, align 8
  %28 = getelementptr inbounds nuw i8, ptr %24, i64 48
  store ptr null, ptr %28, align 8
  %.not52 = icmp eq i32 %4, 2
  br i1 %.not52, label %._crit_edge51, label %.lr.ph50.preheader

.lr.ph50.preheader:                               ; preds = %._crit_edge
  %29 = tail call i32 @llvm.smax.i32(i32 %4, i32 3)
  %smax = add nsw i32 %29, -1
  %wide.trip.count = zext nneg i32 %smax to i64
  br label %.lr.ph50

.lr.ph50:                                         ; preds = %.lr.ph50.preheader, %.lr.ph50
  %indvars.iv = phi i64 [ 1, %.lr.ph50.preheader ], [ %indvars.iv.next, %.lr.ph50 ]
  %30 = getelementptr inbounds nuw ptr, ptr %9, i64 %indvars.iv
  %31 = load ptr, ptr %30, align 8
  %indvars.iv.next = add nuw nsw i64 %indvars.iv, 1
  %32 = getelementptr inbounds nuw ptr, ptr %9, i64 %indvars.iv.next
  %33 = load ptr, ptr %32, align 8
  %34 = getelementptr inbounds nuw i8, ptr %31, i64 40
  store ptr %33, ptr %34, align 8
  %35 = getelementptr i8, ptr %30, i64 -8
  %36 = load ptr, ptr %35, align 8
  %37 = getelementptr inbounds nuw i8, ptr %31, i64 48
  store ptr %36, ptr %37, align 8
  %exitcond.not = icmp eq i64 %indvars.iv.next, %wide.trip.count
  br i1 %exitcond.not, label %._crit_edge51.loopexit, label %.lr.ph50, !llvm.loop !100

._crit_edge51.loopexit:                           ; preds = %.lr.ph50
  %38 = zext nneg i32 %smax to i64
  br label %._crit_edge51

._crit_edge51:                                    ; preds = %._crit_edge, %._crit_edge51.loopexit
  %.1.lcssa = phi i64 [ %38, %._crit_edge51.loopexit ], [ 1, %._crit_edge ]
  %39 = getelementptr inbounds nuw ptr, ptr %9, i64 %.1.lcssa
  %40 = load ptr, ptr %39, align 8
  %41 = getelementptr inbounds nuw i8, ptr %40, i64 40
  store ptr null, ptr %41, align 8
  %42 = getelementptr i8, ptr %39, i64 -8
  %43 = load ptr, ptr %42, align 8
  %44 = getelementptr inbounds nuw i8, ptr %40, i64 48
  store ptr %43, ptr %44, align 8
  tail call void @pfree(ptr noundef nonnull %9) #20
  br label %45

45:                                               ; preds = %2, %._crit_edge51, %11
  ret void
}